; Function Attrs: null_pointer_is_valid sspstrong uwtable
define internal i32 @get_amqp_1_0_message_len(ptr readnone captures(none) %0, ptr noundef %1, i32 noundef %2, ptr readnone captures(none) %3) #0 {
  %5 = tail call i32 @tvb_memeql(ptr noundef %1, i32 noundef %2, ptr noundef nonnull @.str.1058, i64 noundef 4)
  %6 = icmp eq i32 %5, 0
  br i1 %6, label %9, label %7

7:                                                ; preds = %4
  %8 = tail call i32 @tvb_get_ntohl(ptr noundef %1, i32 noundef %2)
  br label %9

9:                                                ; preds = %4, %7
  %.0 = phi i32 [ %8, %7 ], [ 8, %4 ]
  ret i32 %.0
}